target datalayout = "e-m:e-p270:32:32-p271:32:32-p272:64:64-i64:64-i128:128-f80:128-n8:16:32:64-S128"
target triple = "x86_64-pc-linux-gnu"

%class.G1PageBasedVirtualSpace = type <{ ptr, ptr, i64, i64, %class.CHeapBitMap, %class.CHeapBitMap, i8, [7 x i8] }>
%class.CHeapBitMap = type <{ %class.GrowableBitMap, i8, [7 x i8] }>
%class.GrowableBitMap = type { %class.BitMap }
%class.BitMap = type { ptr, i64 }

@g_assert_poison = external global ptr, align 8
@.str = private unnamed_addr constant [52 x i8] c"src/hotspot/share/gc/g1/g1PageBasedVirtualSpace.cpp\00", align 1
@.str.17 = private unnamed_addr constant [40 x i8] c"guarantee(start_page < end_page) failed\00", align 1
@.str.18 = private unnamed_addr constant [56 x i8] c"Given start page %lu is larger or equal to end page %lu\00", align 1

; Function Attrs: mustprogress nounwind uwtable
define linkonce_odr hidden noundef ptr @_Z4MIN2IPcET_S1_S1_(ptr noundef %0, ptr noundef %1) #1 comdat {
  %3 = alloca ptr, align 8
  %4 = alloca ptr, align 8
  store ptr %0, ptr %3, align 8
  store ptr %1, ptr %4, align 8
  %5 = load ptr, ptr %3, align 8
  %6 = load ptr, ptr %4, align 8
  %7 = icmp ult ptr %5, %6
  br i1 %7, label %8, label %10

8:                                                ; preds = %2
  %9 = load ptr, ptr %3, align 8
  br label %12

10:                                               ; preds = %2
  %11 = load ptr, ptr %4, align 8
  br label %12

12:                                               ; preds = %10, %8
  %13 = phi ptr [ %9, %8 ], [ %11, %10 ]
  ret ptr %13
}

; Function Attrs: mustprogress nounwind uwtable
define linkonce_odr hidden noundef i64 @_Z13pointer_deltaPVKvS0_m(ptr noundef %0, ptr noundef %1, i64 noundef %2) #1 comdat {
  %4 = alloca ptr, align 8
  %5 = alloca ptr, align 8
  %6 = alloca i64, align 8
  store ptr %0, ptr %4, align 8
  store ptr %1, ptr %5, align 8
  store i64 %2, ptr %6, align 8
  %7 = load ptr, ptr %4, align 8
  %8 = ptrtoint ptr %7 to i64
  %9 = load ptr, ptr %5, align 8
  %10 = ptrtoint ptr %9 to i64
  %11 = sub i64 %8, %10
  %12 = load i64, ptr %6, align 8
  %13 = udiv i64 %11, %12
  ret i64 %13
}

; Function Attrs: mustprogress nounwind uwtable
define hidden noundef ptr @_ZNK23G1PageBasedVirtualSpace16bounded_end_addrEm(ptr noundef nonnull align 8 dereferenceable(81) %0, i64 noundef %1) #1 align 2 {
  %3 = alloca ptr, align 8
  %4 = alloca i64, align 8
  store ptr %0, ptr %3, align 8
  store i64 %1, ptr %4, align 8
  %5 = load ptr, ptr %3, align 8
  %6 = getelementptr inbounds %class.G1PageBasedVirtualSpace, ptr %5, i32 0, i32 1
  %7 = load ptr, ptr %6, align 8
  %8 = load i64, ptr %4, align 8
  %9 = call noundef ptr @_ZNK23G1PageBasedVirtualSpace10page_startEm(ptr noundef nonnull align 8 dereferenceable(81) %5, i64 noundef %8)
  %10 = call noundef ptr @_Z4MIN2IPcET_S1_S1_(ptr noundef %7, ptr noundef %9)
  ret ptr %10
}

; Function Attrs: mustprogress nounwind uwtable
define hidden noundef ptr @_ZNK23G1PageBasedVirtualSpace10page_startEm(ptr noundef nonnull align 8 dereferenceable(81) %0, i64 noundef %1) #1 align 2 {
  %3 = alloca ptr, align 8
  %4 = alloca i64, align 8
  store ptr %0, ptr %3, align 8
  store i64 %1, ptr %4, align 8
  %5 = load ptr, ptr %3, align 8
  %6 = getelementptr inbounds %class.G1PageBasedVirtualSpace, ptr %5, i32 0, i32 0
  %7 = load ptr, ptr %6, align 8
  %8 = load i64, ptr %4, align 8
  %9 = getelementptr inbounds %class.G1PageBasedVirtualSpace, ptr %5, i32 0, i32 3
  %10 = load i64, ptr %9, align 8
  %11 = mul i64 %8, %10
  %12 = getelementptr inbounds i8, ptr %7, i64 %11
  ret ptr %12
}

; Function Attrs: mustprogress nounwind uwtable
define hidden void @_ZN23G1PageBasedVirtualSpace17uncommit_internalEmm(ptr noundef nonnull align 8 dereferenceable(81) %0, i64 noundef %1, i64 noundef %2) #1 align 2 {
  %4 = alloca ptr, align 8
  %5 = alloca i64, align 8
  %6 = alloca i64, align 8
  %7 = alloca ptr, align 8
  store ptr %0, ptr %4, align 8
  store i64 %1, ptr %5, align 8
  store i64 %2, ptr %6, align 8
  %8 = load ptr, ptr %4, align 8
  br label %9

9:                                                ; preds = %3
  %10 = load i64, ptr %5, align 8
  %11 = load i64, ptr %6, align 8
  %12 = icmp ult i64 %10, %11
  br i1 %12, label %17, label %13

13:                                               ; preds = %9
  %14 = load ptr, ptr @g_assert_poison, align 8
  store i8 88, ptr %14, align 1
  %15 = load i64, ptr %5, align 8
  %16 = load i64, ptr %6, align 8
  call void (ptr, i32, ptr, ptr, ...) @_Z15report_vm_errorPKciS0_S0_z(ptr noundef @.str, i32 noundef 201, ptr noundef @.str.17, ptr noundef @.str.18, i64 noundef %15, i64 noundef %16) #7
  unreachable

17:                                               ; preds = %9
  br label %18

18:                                               ; preds = %17
  %19 = load i64, ptr %5, align 8
  %20 = call noundef ptr @_ZNK23G1PageBasedVirtualSpace10page_startEm(ptr noundef nonnull align 8 dereferenceable(81) %8, i64 noundef %19)
  store ptr %20, ptr %7, align 8
  %21 = load ptr, ptr %7, align 8
  %22 = load i64, ptr %6, align 8
  %23 = call noundef ptr @_ZNK23G1PageBasedVirtualSpace16bounded_end_addrEm(ptr noundef nonnull align 8 dereferenceable(81) %8, i64 noundef %22)
  %24 = load ptr, ptr %7, align 8
  %25 = call noundef i64 @_Z13pointer_deltaPVKvS0_m(ptr noundef %23, ptr noundef %24, i64 noundef 1)
  %26 = call noundef zeroext i1 @_ZN2os15uncommit_memoryEPcmb(ptr noundef %21, i64 noundef %25, i1 noundef zeroext false)
  ret void
}