; Function Attrs: mustprogress nounwind uwtable
define hidden void @_ZN23G1PageBasedVirtualSpace17uncommit_internalEmm(ptr nocapture noundef nonnull readonly align 8 dereferenceable(81) %0, i64 noundef %1, i64 noundef %2) local_unnamed_addr #0 align 2 {
  %4 = icmp ult i64 %1, %2
  br i1 %4, label %7, label %5

5:                                                ; preds = %3
  %6 = load ptr, ptr @g_assert_poison, align 8
  store i8 88, ptr %6, align 1
  tail call void (ptr, i32, ptr, ptr, ...) @_Z15report_vm_errorPKciS0_S0_z(ptr noundef nonnull @.str, i32 noundef 201, ptr noundef nonnull @.str.17, ptr noundef nonnull @.str.18, i64 noundef %1, i64 noundef %2) #9
  unreachable

7:                                                ; preds = %3
  %8 = load ptr, ptr %0, align 8
  %9 = getelementptr inbounds i8, ptr %0, i64 24
  %10 = load i64, ptr %9, align 8
  %11 = mul i64 %10, %1
  %12 = getelementptr inbounds i8, ptr %8, i64 %11
  %13 = getelementptr inbounds i8, ptr %0, i64 8
  %14 = load ptr, ptr %13, align 8
  %15 = mul i64 %10, %2
  %16 = getelementptr inbounds i8, ptr %8, i64 %15
  %17 = icmp ult ptr %14, %16
  %18 = select i1 %17, ptr %14, ptr %16
  %19 = ptrtoint ptr %18 to i64
  %20 = ptrtoint ptr %12 to i64
  %21 = sub i64 %19, %20
  %22 = tail call noundef zeroext i1 @_ZN2os15uncommit_memoryEPcmb(ptr noundef %12, i64 noundef %21, i1 noundef zeroext false) #10
  ret void
}